; Function Attrs: mustprogress uwtable
define void @_ZN14WarningHandler10addWarningESt17basic_string_viewIcSt11char_traitsIcEE(ptr noundef nonnull align 8 captures(none) dereferenceable(64) %0, i64 %1, ptr %2) local_unnamed_addr #0 align 2 {
  %4 = load i8, ptr %0, align 8, !tbaa !54, !range !55, !noundef !56
  %5 = trunc nuw i8 %4 to i1
  %. = select i1 %5, i64 8, i64 12
  %.10 = select i1 %5, i32 1, i32 2
  %6 = getelementptr inbounds nuw i8, ptr %0, i64 %.
  %7 = load i32, ptr %6, align 4, !tbaa !35
  %8 = add nsw i32 %7, 1
  store i32 %8, ptr %6, align 4, !tbaa !35
  tail call void @_ZN14WarningHandler11addLowLevelESt17basic_string_viewIcSt11char_traitsIcEE11WarningType(ptr noundef nonnull align 8 dereferenceable(64) %0, i64 %1, ptr %2, i32 noundef %.10)
  ret void
}